; Function Attrs: mustprogress uwtable
define noundef i32 @_ZNK6casadi9LinsolLdl5solveEPvPKdPdxb(ptr noundef nonnull align 8 dereferenceable(218) %0, ptr nocapture noundef readonly %1, ptr nocapture readnone %2, ptr noundef %3, i64 noundef %4, i1 zeroext %5) unnamed_addr #4 align 2 {
  %7 = getelementptr inbounds i8, ptr %0, i64 208
  %8 = tail call noundef ptr @_ZNK6casadi8SparsitycvPKxEv(ptr noundef nonnull align 8 dereferenceable(8) %7)
  %9 = getelementptr inbounds i8, ptr %1, i64 64
  %10 = load ptr, ptr %9, align 8
  %11 = getelementptr inbounds i8, ptr %1, i64 72
  %12 = load ptr, ptr %11, align 8
  %13 = icmp eq ptr %10, %12
  %spec.select.i = select i1 %13, ptr null, ptr %10
  %14 = getelementptr inbounds i8, ptr %1, i64 88
  %15 = load ptr, ptr %14, align 8
  %16 = getelementptr inbounds i8, ptr %1, i64 96
  %17 = load ptr, ptr %16, align 8
  %18 = icmp eq ptr %15, %17
  %spec.select.i6 = select i1 %18, ptr null, ptr %15
  %19 = getelementptr inbounds i8, ptr %0, i64 184
  %20 = load ptr, ptr %19, align 8
  %21 = getelementptr inbounds i8, ptr %0, i64 192
  %22 = load ptr, ptr %21, align 8
  %23 = icmp eq ptr %20, %22
  %spec.select.i7 = select i1 %23, ptr null, ptr %20
  %24 = getelementptr inbounds i8, ptr %1, i64 112
  %25 = load ptr, ptr %24, align 8
  %26 = getelementptr inbounds i8, ptr %1, i64 120
  %27 = load ptr, ptr %26, align 8
  %28 = icmp eq ptr %25, %27
  %spec.select.i8 = select i1 %28, ptr null, ptr %25
  tail call void @_ZN6casadi16casadi_ldl_solveIdEEvPT_xPKxPKS1_S6_S4_S2_(ptr noundef %3, i64 noundef %4, ptr noundef %8, ptr noundef %spec.select.i, ptr noundef %spec.select.i6, ptr noundef %spec.select.i7, ptr noundef %spec.select.i8)
  ret i32 0
}